target datalayout = "e-m:e-p270:32:32-p271:32:32-p272:64:64-i64:64-i128:128-f80:128-n8:16:32:64-S128"
target triple = "x86_64-pc-linux-gnu"

%"class.zmq::v2_decoder_t" = type { %"class.zmq::decoder_base_t", [8 x i8], i8, %"class.zmq::msg_t", i8, i64 }
%"class.zmq::decoder_base_t" = type { %"class.zmq::i_decoder", { i64, i64 }, ptr, i64, %"class.zmq::shared_message_memory_allocator", ptr }
%"class.zmq::i_decoder" = type { ptr }
%"class.zmq::shared_message_memory_allocator" = type { ptr, i64, i64, ptr, i64 }
%"class.zmq::msg_t" = type { %union.anon }
%union.anon = type { %struct.anon }
%struct.anon = type { ptr, [34 x i8], i8, i8, i32, %"union.zmq::msg_t::group_t" }
%"union.zmq::msg_t::group_t" = type { %struct.anon.1 }
%struct.anon.1 = type { i8, ptr }
%"struct.zmq::msg_t::content_t" = type { ptr, i64, ptr, ptr, %"class.zmq::atomic_counter_t" }
%"class.zmq::atomic_counter_t" = type { %"struct.std::atomic", [4 x i8] }
%"struct.std::atomic" = type { %"struct.std::__atomic_base" }
%"struct.std::__atomic_base" = type { i32 }

@stderr = external global ptr, align 8
@.str = private unnamed_addr constant [12 x i8] c"%s (%s:%d)\0A\00", align 1
@.str.1 = private unnamed_addr constant [110 x i8] c"generated/home/dtcxzyw/WorkSpace/Projects/compilers/llvm-opt-benchmark/bench/libzmq/libzmq/src/v2_decoder.cpp\00", align 1

; Function Attrs: mustprogress nounwind uwtable
define linkonce_odr void @_ZN3zmq14decoder_base_tINS_12v2_decoder_tENS_31shared_message_memory_allocatorEE9next_stepEPvmMS1_FiPKhE(ptr noundef nonnull align 8 dereferenceable(88) %0, ptr noundef %1, i64 noundef %2, i64 %3, i64 %4) #6 comdat align 2 {
  %6 = alloca { i64, i64 }, align 8
  %7 = alloca ptr, align 8
  %8 = alloca ptr, align 8
  %9 = alloca i64, align 8
  %10 = alloca { i64, i64 }, align 8
  %11 = getelementptr inbounds nuw { i64, i64 }, ptr %6, i32 0, i32 0
  store i64 %3, ptr %11, align 8
  %12 = getelementptr inbounds nuw { i64, i64 }, ptr %6, i32 0, i32 1
  store i64 %4, ptr %12, align 8
  %13 = load { i64, i64 }, ptr %6, align 8, !tbaa !31
  store ptr %0, ptr %7, align 8, !tbaa !32
  store ptr %1, ptr %8, align 8, !tbaa !38
  store i64 %2, ptr %9, align 8, !tbaa !8
  store { i64, i64 } %13, ptr %10, align 8, !tbaa !31
  %14 = load ptr, ptr %7, align 8
  %15 = load ptr, ptr %8, align 8, !tbaa !38
  %16 = getelementptr inbounds nuw %"class.zmq::decoder_base_t", ptr %14, i32 0, i32 2
  store ptr %15, ptr %16, align 8, !tbaa !35
  %17 = load i64, ptr %9, align 8, !tbaa !8
  %18 = getelementptr inbounds nuw %"class.zmq::decoder_base_t", ptr %14, i32 0, i32 3
  store i64 %17, ptr %18, align 8, !tbaa !36
  %19 = load { i64, i64 }, ptr %10, align 8, !tbaa !31
  %20 = getelementptr inbounds nuw %"class.zmq::decoder_base_t", ptr %14, i32 0, i32 1
  store { i64, i64 } %19, ptr %20, align 8, !tbaa !34
  ret void
}

; Function Attrs: mustprogress nounwind uwtable
define linkonce_odr void @_ZN3zmq31shared_message_memory_allocator15advance_contentEv(ptr noundef nonnull align 8 dereferenceable(40) %0) #6 comdat align 2 {
  %2 = alloca ptr, align 8
  store ptr %0, ptr %2, align 8, !tbaa !39
  %3 = load ptr, ptr %2, align 8
  %4 = getelementptr inbounds nuw %"class.zmq::shared_message_memory_allocator", ptr %3, i32 0, i32 3
  %5 = load ptr, ptr %4, align 8, !tbaa !42
  %6 = getelementptr inbounds nuw %"struct.zmq::msg_t::content_t", ptr %5, i32 1
  store ptr %6, ptr %4, align 8, !tbaa !42
  ret void
}

; Function Attrs: mustprogress nounwind uwtable
define linkonce_odr noundef ptr @_ZN3zmq31shared_message_memory_allocator15provide_contentEv(ptr noundef nonnull align 8 dereferenceable(40) %0) #6 comdat align 2 {
  %2 = alloca ptr, align 8
  store ptr %0, ptr %2, align 8, !tbaa !39
  %3 = load ptr, ptr %2, align 8
  %4 = getelementptr inbounds nuw %"class.zmq::shared_message_memory_allocator", ptr %3, i32 0, i32 3
  %5 = load ptr, ptr %4, align 8, !tbaa !42
  ret ptr %5
}

; Function Attrs: mustprogress nounwind uwtable
define linkonce_odr noundef ptr @_ZN3zmq31shared_message_memory_allocator6bufferEv(ptr noundef nonnull align 8 dereferenceable(40) %0) #6 comdat align 2 {
  %2 = alloca ptr, align 8
  store ptr %0, ptr %2, align 8, !tbaa !39
  %3 = load ptr, ptr %2, align 8
  %4 = getelementptr inbounds nuw %"class.zmq::shared_message_memory_allocator", ptr %3, i32 0, i32 0
  %5 = load ptr, ptr %4, align 8, !tbaa !41
  ret ptr %5
}

; Function Attrs: mustprogress nounwind uwtable
define linkonce_odr noundef nonnull align 8 dereferenceable(40) ptr @_ZN3zmq14decoder_base_tINS_12v2_decoder_tENS_31shared_message_memory_allocatorEE13get_allocatorEv(ptr noundef nonnull align 8 dereferenceable(88) %0) #6 comdat align 2 {
  %2 = alloca ptr, align 8
  store ptr %0, ptr %2, align 8, !tbaa !32
  %3 = load ptr, ptr %2, align 8
  %4 = getelementptr inbounds nuw %"class.zmq::decoder_base_t", ptr %3, i32 0, i32 4
  ret ptr %4
}

; Function Attrs: mustprogress uwtable
define noundef i32 @_ZN3zmq12v2_decoder_t10size_readyEmPKh(ptr noundef nonnull align 8 dereferenceable(184) %0, i64 noundef %1, ptr noundef %2) #0 align 2 {
  %4 = alloca i32, align 4
  %5 = alloca ptr, align 8
  %6 = alloca i64, align 8
  %7 = alloca ptr, align 8
  %8 = alloca i32, align 4
  %9 = alloca ptr, align 8
  %10 = alloca ptr, align 8
  %11 = alloca ptr, align 8
  %12 = alloca i32, align 4
  %13 = alloca { i64, i64 }, align 8
  store ptr %0, ptr %5, align 8, !tbaa !3
  store i64 %1, ptr %6, align 8, !tbaa !8
  store ptr %2, ptr %7, align 8, !tbaa !28
  %14 = load ptr, ptr %5, align 8
  %15 = getelementptr inbounds nuw %"class.zmq::v2_decoder_t", ptr %14, i32 0, i32 5
  %16 = load i64, ptr %15, align 8, !tbaa !25
  %17 = icmp sge i64 %16, 0
  br i1 %17, label %18, label %29

18:                                               ; preds = %3
  %19 = load i64, ptr %6, align 8, !tbaa !8
  %20 = getelementptr inbounds nuw %"class.zmq::v2_decoder_t", ptr %14, i32 0, i32 5
  %21 = load i64, ptr %20, align 8, !tbaa !25
  %22 = icmp ugt i64 %19, %21
  %23 = zext i1 %22 to i64
  %24 = call i64 @llvm.expect.i64(i64 %23, i64 0)
  %25 = icmp ne i64 %24, 0
  br i1 %25, label %26, label %28

26:                                               ; preds = %18
  %27 = call ptr @__errno_location() #13
  store i32 90, ptr %27, align 4, !tbaa !26
  store i32 -1, ptr %4, align 4
  br label %144

28:                                               ; preds = %18
  br label %29

29:                                               ; preds = %28, %3
  %30 = load i64, ptr %6, align 8, !tbaa !8
  %31 = load i64, ptr %6, align 8, !tbaa !8
  %32 = icmp ne i64 %30, %31
  %33 = zext i1 %32 to i64
  %34 = call i64 @llvm.expect.i64(i64 %33, i64 0)
  %35 = icmp ne i64 %34, 0
  br i1 %35, label %36, label %38

36:                                               ; preds = %29
  %37 = call ptr @__errno_location() #13
  store i32 90, ptr %37, align 4, !tbaa !26
  store i32 -1, ptr %4, align 4
  br label %144

38:                                               ; preds = %29
  call void @llvm.lifetime.start.p0(i64 4, ptr %8) #12
  %39 = getelementptr inbounds nuw %"class.zmq::v2_decoder_t", ptr %14, i32 0, i32 3
  %40 = call noundef i32 @_ZN3zmq5msg_t5closeEv(ptr noundef nonnull align 8 dereferenceable(64) %39)
  store i32 %40, ptr %8, align 4, !tbaa !26
  call void @llvm.lifetime.start.p0(i64 8, ptr %9) #12
  %41 = call noundef nonnull align 8 dereferenceable(40) ptr @_ZN3zmq14decoder_base_tINS_12v2_decoder_tENS_31shared_message_memory_allocatorEE13get_allocatorEv(ptr noundef nonnull align 8 dereferenceable(88) %14)
  store ptr %41, ptr %9, align 8, !tbaa !39
  %42 = getelementptr inbounds nuw %"class.zmq::v2_decoder_t", ptr %14, i32 0, i32 4
  %43 = load i8, ptr %42, align 8, !tbaa !24, !range !22, !noundef !23
  %44 = trunc i8 %43 to i1
  br i1 %44, label %45, label %57

45:                                               ; preds = %38
  %46 = load i64, ptr %6, align 8, !tbaa !8
  %47 = load ptr, ptr %9, align 8, !tbaa !39
  %48 = call noundef ptr @_ZN3zmq31shared_message_memory_allocator4dataEv(ptr noundef nonnull align 8 dereferenceable(40) %47)
  %49 = load ptr, ptr %9, align 8, !tbaa !39
  %50 = call noundef i64 @_ZNK3zmq31shared_message_memory_allocator4sizeEv(ptr noundef nonnull align 8 dereferenceable(40) %49)
  %51 = getelementptr inbounds nuw i8, ptr %48, i64 %50
  %52 = load ptr, ptr %7, align 8, !tbaa !28
  %53 = ptrtoint ptr %51 to i64
  %54 = ptrtoint ptr %52 to i64
  %55 = sub i64 %53, %54
  %56 = icmp ugt i64 %46, %55
  br label %57

57:                                               ; preds = %45, %38
  %58 = phi i1 [ true, %38 ], [ %56, %45 ]
  %59 = zext i1 %58 to i64
  %60 = call i64 @llvm.expect.i64(i64 %59, i64 0)
  %61 = icmp ne i64 %60, 0
  br i1 %61, label %62, label %66

62:                                               ; preds = %57
  %63 = getelementptr inbounds nuw %"class.zmq::v2_decoder_t", ptr %14, i32 0, i32 3
  %64 = load i64, ptr %6, align 8, !tbaa !8
  %65 = call noundef i32 @_ZN3zmq5msg_t9init_sizeEm(ptr noundef nonnull align 8 dereferenceable(64) %63, i64 noundef %64)
  store i32 %65, ptr %8, align 4, !tbaa !26
  br label %81

66:                                               ; preds = %57
  %67 = getelementptr inbounds nuw %"class.zmq::v2_decoder_t", ptr %14, i32 0, i32 3
  %68 = load ptr, ptr %7, align 8, !tbaa !28
  %69 = load i64, ptr %6, align 8, !tbaa !8
  %70 = load ptr, ptr %9, align 8, !tbaa !39
  %71 = call noundef ptr @_ZN3zmq31shared_message_memory_allocator6bufferEv(ptr noundef nonnull align 8 dereferenceable(40) %70)
  %72 = load ptr, ptr %9, align 8, !tbaa !39
  %73 = call noundef ptr @_ZN3zmq31shared_message_memory_allocator15provide_contentEv(ptr noundef nonnull align 8 dereferenceable(40) %72)
  %74 = call noundef i32 @_ZN3zmq5msg_t4initEPvmPFvS1_S1_ES1_PNS0_9content_tE(ptr noundef nonnull align 8 dereferenceable(64) %67, ptr noundef %68, i64 noundef %69, ptr noundef @_ZN3zmq31shared_message_memory_allocator12call_dec_refEPvS1_, ptr noundef %71, ptr noundef %73)
  store i32 %74, ptr %8, align 4, !tbaa !26
  %75 = getelementptr inbounds nuw %"class.zmq::v2_decoder_t", ptr %14, i32 0, i32 3
  %76 = call noundef zeroext i1 @_ZNK3zmq5msg_t8is_zcmsgEv(ptr noundef nonnull align 8 dereferenceable(64) %75)
  br i1 %76, label %77, label %80

77:                                               ; preds = %66
  %78 = load ptr, ptr %9, align 8, !tbaa !39
  call void @_ZN3zmq31shared_message_memory_allocator15advance_contentEv(ptr noundef nonnull align 8 dereferenceable(40) %78)
  %79 = load ptr, ptr %9, align 8, !tbaa !39
  call void @_ZN3zmq31shared_message_memory_allocator7inc_refEv(ptr noundef nonnull align 8 dereferenceable(40) %79)
  br label %80

80:                                               ; preds = %77, %66
  br label %81

81:                                               ; preds = %80, %62
  %82 = load i32, ptr %8, align 4, !tbaa !26
  %83 = sext i32 %82 to i64
  %84 = call i64 @llvm.expect.i64(i64 %83, i64 0)
  %85 = icmp ne i64 %84, 0
  br i1 %85, label %86, label %131

86:                                               ; preds = %81
  br label %87

87:                                               ; preds = %86
  %88 = call ptr @__errno_location() #13
  %89 = load i32, ptr %88, align 4, !tbaa !26
  %90 = icmp eq i32 %89, 12
  %91 = xor i1 %90, true
  %92 = zext i1 %91 to i64
  %93 = call i64 @llvm.expect.i64(i64 %92, i64 0)
  %94 = icmp ne i64 %93, 0
  br i1 %94, label %95, label %105

95:                                               ; preds = %87
  call void @llvm.lifetime.start.p0(i64 8, ptr %10) #12
  %96 = call ptr @__errno_location() #13
  %97 = load i32, ptr %96, align 4, !tbaa !26
  %98 = call ptr @strerror(i32 noundef %97) #12
  store ptr %98, ptr %10, align 8, !tbaa !28
  %99 = load ptr, ptr @stderr, align 8, !tbaa !29
  %100 = load ptr, ptr %10, align 8, !tbaa !28
  %101 = call i32 (ptr, ptr, ...) @fprintf(ptr noundef %99, ptr noundef @.str, ptr noundef %100, ptr noundef @.str.1, i32 noundef 114) #12
  %102 = load ptr, ptr @stderr, align 8, !tbaa !29
  %103 = call i32 @fflush(ptr noundef %102)
  %104 = load ptr, ptr %10, align 8, !tbaa !28
  call void @_ZN3zmq9zmq_abortEPKc(ptr noundef %104)
  call void @llvm.lifetime.end.p0(i64 8, ptr %10) #12
  br label %105

105:                                              ; preds = %95, %87
  br label %106

106:                                              ; preds = %105
  br label %107

107:                                              ; preds = %106
  %108 = getelementptr inbounds nuw %"class.zmq::v2_decoder_t", ptr %14, i32 0, i32 3
  %109 = call noundef i32 @_ZN3zmq5msg_t4initEv(ptr noundef nonnull align 8 dereferenceable(64) %108)
  store i32 %109, ptr %8, align 4, !tbaa !26
  br label %110

110:                                              ; preds = %107
  %111 = load i32, ptr %8, align 4, !tbaa !26
  %112 = icmp eq i32 %111, 0
  %113 = xor i1 %112, true
  %114 = zext i1 %113 to i64
  %115 = call i64 @llvm.expect.i64(i64 %114, i64 0)
  %116 = icmp ne i64 %115, 0
  br i1 %116, label %117, label %127

117:                                              ; preds = %110
  call void @llvm.lifetime.start.p0(i64 8, ptr %11) #12
  %118 = call ptr @__errno_location() #13
  %119 = load i32, ptr %118, align 4, !tbaa !26
  %120 = call ptr @strerror(i32 noundef %119) #12
  store ptr %120, ptr %11, align 8, !tbaa !28
  %121 = load ptr, ptr @stderr, align 8, !tbaa !29
  %122 = load ptr, ptr %11, align 8, !tbaa !28
  %123 = call i32 (ptr, ptr, ...) @fprintf(ptr noundef %121, ptr noundef @.str, ptr noundef %122, ptr noundef @.str.1, i32 noundef 116) #12
  %124 = load ptr, ptr @stderr, align 8, !tbaa !29
  %125 = call i32 @fflush(ptr noundef %124)
  %126 = load ptr, ptr %11, align 8, !tbaa !28
  call void @_ZN3zmq9zmq_abortEPKc(ptr noundef %126)
  call void @llvm.lifetime.end.p0(i64 8, ptr %11) #12
  br label %127

127:                                              ; preds = %117, %110
  br label %128

128:                                              ; preds = %127
  br label %129

129:                                              ; preds = %128
  %130 = call ptr @__errno_location() #13
  store i32 12, ptr %130, align 4, !tbaa !26
  store i32 -1, ptr %4, align 4
  store i32 1, ptr %12, align 4
  br label %143

131:                                              ; preds = %81
  %132 = getelementptr inbounds nuw %"class.zmq::v2_decoder_t", ptr %14, i32 0, i32 3
  %133 = getelementptr inbounds nuw %"class.zmq::v2_decoder_t", ptr %14, i32 0, i32 2
  %134 = load i8, ptr %133, align 8, !tbaa !14
  call void @_ZN3zmq5msg_t9set_flagsEh(ptr noundef nonnull align 8 dereferenceable(64) %132, i8 noundef zeroext %134)
  %135 = getelementptr inbounds nuw %"class.zmq::v2_decoder_t", ptr %14, i32 0, i32 3
  %136 = call noundef ptr @_ZN3zmq5msg_t4dataEv(ptr noundef nonnull align 8 dereferenceable(64) %135)
  %137 = getelementptr inbounds nuw %"class.zmq::v2_decoder_t", ptr %14, i32 0, i32 3
  %138 = call noundef i64 @_ZNK3zmq5msg_t4sizeEv(ptr noundef nonnull align 8 dereferenceable(64) %137)
  store { i64, i64 } { i64 ptrtoint (ptr @_ZN3zmq12v2_decoder_t13message_readyEPKh to i64), i64 0 }, ptr %13, align 8, !tbaa !31
  %139 = getelementptr inbounds nuw { i64, i64 }, ptr %13, i32 0, i32 0
  %140 = load i64, ptr %139, align 8
  %141 = getelementptr inbounds nuw { i64, i64 }, ptr %13, i32 0, i32 1
  %142 = load i64, ptr %141, align 8
  call void @_ZN3zmq14decoder_base_tINS_12v2_decoder_tENS_31shared_message_memory_allocatorEE9next_stepEPvmMS1_FiPKhE(ptr noundef nonnull align 8 dereferenceable(88) %14, ptr noundef %136, i64 noundef %138, i64 %140, i64 %142)
  store i32 0, ptr %4, align 4
  store i32 1, ptr %12, align 4
  br label %143

143:                                              ; preds = %131, %129
  call void @llvm.lifetime.end.p0(i64 8, ptr %9) #12
  call void @llvm.lifetime.end.p0(i64 4, ptr %8) #12
  br label %144

144:                                              ; preds = %143, %36, %26
  %145 = load i32, ptr %4, align 4
  ret i32 %145
}