; Function Attrs: mustprogress uwtable
define noundef range(i32 -1, 1) i32 @_ZN3zmq12v2_decoder_t10size_readyEmPKh(ptr noundef nonnull align 8 dereferenceable(184) %0, i64 noundef %1, ptr noundef %2) local_unnamed_addr #0 align 2 {
  %4 = getelementptr inbounds nuw i8, ptr %0, i64 176
  %5 = load i64, ptr %4, align 8, !tbaa !20
  %6 = icmp sgt i64 %5, -1
  %7 = icmp ugt i64 %1, %5
  %or.cond = and i1 %6, %7
  br i1 %or.cond, label %8, label %10, !prof !30

8:                                                ; preds = %3
  %9 = tail call ptr @__errno_location() #16
  store i32 90, ptr %9, align 4, !tbaa !22
  br label %63

10:                                               ; preds = %3
  %11 = getelementptr inbounds nuw i8, ptr %0, i64 104
  %12 = tail call noundef i32 @_ZN3zmq5msg_t5closeEv(ptr noundef nonnull align 8 dereferenceable(64) %11)
  %13 = getelementptr inbounds nuw i8, ptr %0, i64 40
  %14 = getelementptr inbounds nuw i8, ptr %0, i64 168
  %15 = load i8, ptr %14, align 8, !tbaa !19, !range !31, !noundef !32
  %16 = trunc nuw i8 %15 to i1
  br i1 %16, label %17, label %.critedge, !prof !21

17:                                               ; preds = %10
  %18 = tail call noundef ptr @_ZN3zmq31shared_message_memory_allocator4dataEv(ptr noundef nonnull align 8 dereferenceable(40) %13)
  %19 = tail call noundef i64 @_ZNK3zmq31shared_message_memory_allocator4sizeEv(ptr noundef nonnull align 8 dereferenceable(40) %13)
  %20 = getelementptr inbounds nuw i8, ptr %18, i64 %19
  %21 = ptrtoint ptr %20 to i64
  %22 = ptrtoint ptr %2 to i64
  %23 = sub i64 %21, %22
  %24 = icmp ugt i64 %1, %23
  br i1 %24, label %.critedge, label %26, !prof !33

.critedge:                                        ; preds = %10, %17
  %25 = tail call noundef i32 @_ZN3zmq5msg_t9init_sizeEm(ptr noundef nonnull align 8 dereferenceable(64) %11, i64 noundef %1)
  br label %35

26:                                               ; preds = %17
  %27 = load ptr, ptr %13, align 8, !tbaa !34
  %28 = getelementptr inbounds nuw i8, ptr %0, i64 64
  %29 = load ptr, ptr %28, align 8, !tbaa !35
  %30 = tail call noundef i32 @_ZN3zmq5msg_t4initEPvmPFvS1_S1_ES1_PNS0_9content_tE(ptr noundef nonnull align 8 dereferenceable(64) %11, ptr noundef %2, i64 noundef %1, ptr noundef nonnull @_ZN3zmq31shared_message_memory_allocator12call_dec_refEPvS1_, ptr noundef %27, ptr noundef %29)
  %31 = tail call noundef zeroext i1 @_ZNK3zmq5msg_t8is_zcmsgEv(ptr noundef nonnull align 8 dereferenceable(64) %11)
  br i1 %31, label %32, label %35

32:                                               ; preds = %26
  %33 = load ptr, ptr %28, align 8, !tbaa !35
  %34 = getelementptr inbounds nuw i8, ptr %33, i64 40
  store ptr %34, ptr %28, align 8, !tbaa !35
  tail call void @_ZN3zmq31shared_message_memory_allocator7inc_refEv(ptr noundef nonnull align 8 dereferenceable(40) %13)
  br label %35

35:                                               ; preds = %26, %32, %.critedge
  %.021 = phi i32 [ %25, %.critedge ], [ %30, %32 ], [ %30, %26 ]
  %.not = icmp eq i32 %.021, 0
  br i1 %.not, label %55, label %36, !prof !21

36:                                               ; preds = %35
  %37 = tail call ptr @__errno_location() #16
  %38 = load i32, ptr %37, align 4, !tbaa !22
  %.not23 = icmp eq i32 %38, 12
  br i1 %.not23, label %45, label %39, !prof !21

39:                                               ; preds = %36
  %40 = tail call ptr @strerror(i32 noundef %38) #15
  %41 = load ptr, ptr @stderr, align 8, !tbaa !24
  %42 = tail call i32 (ptr, ptr, ...) @fprintf(ptr noundef %41, ptr noundef nonnull @.str, ptr noundef %40, ptr noundef nonnull @.str.1, i32 noundef 114) #17
  %43 = load ptr, ptr @stderr, align 8, !tbaa !24
  %44 = tail call i32 @fflush(ptr noundef %43)
  tail call void @_ZN3zmq9zmq_abortEPKc(ptr noundef %40)
  br label %45

45:                                               ; preds = %39, %36
  %46 = tail call noundef i32 @_ZN3zmq5msg_t4initEv(ptr noundef nonnull align 8 dereferenceable(64) %11)
  %.not24 = icmp eq i32 %46, 0
  br i1 %.not24, label %54, label %47, !prof !21

47:                                               ; preds = %45
  %48 = load i32, ptr %37, align 4, !tbaa !22
  %49 = tail call ptr @strerror(i32 noundef %48) #15
  %50 = load ptr, ptr @stderr, align 8, !tbaa !24
  %51 = tail call i32 (ptr, ptr, ...) @fprintf(ptr noundef %50, ptr noundef nonnull @.str, ptr noundef %49, ptr noundef nonnull @.str.1, i32 noundef 116) #17
  %52 = load ptr, ptr @stderr, align 8, !tbaa !24
  %53 = tail call i32 @fflush(ptr noundef %52)
  tail call void @_ZN3zmq9zmq_abortEPKc(ptr noundef %49)
  br label %54

54:                                               ; preds = %47, %45
  store i32 12, ptr %37, align 4, !tbaa !22
  br label %63

55:                                               ; preds = %35
  %56 = getelementptr inbounds nuw i8, ptr %0, i64 96
  %57 = load i8, ptr %56, align 8, !tbaa !15
  tail call void @_ZN3zmq5msg_t9set_flagsEh(ptr noundef nonnull align 8 dereferenceable(64) %11, i8 noundef zeroext %57)
  %58 = tail call noundef ptr @_ZN3zmq5msg_t4dataEv(ptr noundef nonnull align 8 dereferenceable(64) %11)
  %59 = tail call noundef i64 @_ZNK3zmq5msg_t4sizeEv(ptr noundef nonnull align 8 dereferenceable(64) %11)
  %60 = getelementptr inbounds nuw i8, ptr %0, i64 24
  store ptr %58, ptr %60, align 8, !tbaa !26
  %61 = getelementptr inbounds nuw i8, ptr %0, i64 32
  store i64 %59, ptr %61, align 8, !tbaa !27
  %62 = getelementptr inbounds nuw i8, ptr %0, i64 8
  store i64 ptrtoint (ptr @_ZN3zmq12v2_decoder_t13message_readyEPKh to i64), ptr %62, align 8, !tbaa !28
  %.repack8.i = getelementptr inbounds nuw i8, ptr %0, i64 16
  store i64 0, ptr %.repack8.i, align 8, !tbaa !28
  br label %63

63:                                               ; preds = %54, %55, %8
  %.0 = phi i32 [ -1, %8 ], [ -1, %54 ], [ 0, %55 ]
  ret i32 %.0
}